target datalayout = "e-m:e-p270:32:32-p271:32:32-p272:64:64-i64:64-i128:128-f80:128-n8:16:32:64-S128"
target triple = "x86_64-pc-linux-gnu"

%struct.qtest_fault = type { ptr, %struct.quic_pkt_hdr_st, %struct.ossl_qtx_iovec_st, i64, ptr, ptr, ptr, i64, i64, ptr, ptr, ptr, ptr, ptr, ptr, ptr, ptr, %struct.bio_msg_st, i64, %struct.noise_args_data_st }
%struct.quic_pkt_hdr_st = type { i32, i32, %struct.quic_conn_id_st, %struct.quic_conn_id_st, [4 x i8], ptr, i64, i64, ptr }
%struct.quic_conn_id_st = type { i8, [20 x i8] }
%struct.ossl_qtx_iovec_st = type { ptr, i64 }
%struct.bio_msg_st = type { ptr, i64, ptr, ptr, i64 }
%struct.noise_args_data_st = type { ptr, ptr, ptr, i32 }

@.str = private unnamed_addr constant [38 x i8] c"../openssl/test/helpers/quictestlib.c\00", align 1

; Function Attrs: nounwind uwtable
define dso_local ptr @qtest_create_injector(ptr noundef %0) #0 {
  %2 = alloca ptr, align 8
  %3 = alloca ptr, align 8
  %4 = alloca ptr, align 8
  %5 = alloca i32, align 4
  store ptr %0, ptr %3, align 8, !tbaa !29
  call void @llvm.lifetime.start.p0(i64 8, ptr %4) #8
  %6 = call noalias ptr @CRYPTO_zalloc(i64 noundef 304, ptr noundef @.str, i32 noundef 411)
  store ptr %6, ptr %4, align 8, !tbaa !33
  %7 = load ptr, ptr %4, align 8, !tbaa !33
  %8 = icmp eq ptr %7, null
  br i1 %8, label %9, label %10

9:                                                ; preds = %1
  store ptr null, ptr %2, align 8
  store i32 1, ptr %5, align 4
  br label %15

10:                                               ; preds = %1
  %11 = load ptr, ptr %3, align 8, !tbaa !29
  %12 = load ptr, ptr %4, align 8, !tbaa !33
  %13 = getelementptr inbounds nuw %struct.qtest_fault, ptr %12, i32 0, i32 0
  store ptr %11, ptr %13, align 8, !tbaa !59
  %14 = load ptr, ptr %4, align 8, !tbaa !33
  store ptr %14, ptr %2, align 8
  store i32 1, ptr %5, align 4
  br label %15

15:                                               ; preds = %10, %9
  call void @llvm.lifetime.end.p0(i64 8, ptr %4) #8
  %16 = load ptr, ptr %2, align 8
  ret ptr %16
}