; Function Attrs: nounwind uwtable
define dso_local noalias ptr @qtest_create_injector(ptr noundef %0) local_unnamed_addr #0 {
  %2 = tail call noalias ptr @CRYPTO_zalloc(i64 noundef 304, ptr noundef nonnull @.str, i32 noundef 411) #10
  %3 = icmp eq ptr %2, null
  br i1 %3, label %5, label %4

4:                                                ; preds = %1
  store ptr %0, ptr %2, align 8, !tbaa !45
  br label %5

5:                                                ; preds = %1, %4
  ret ptr %2
}